target datalayout = "e-m:e-p270:32:32-p271:32:32-p272:64:64-i64:64-i128:128-f80:128-n8:16:32:64-S128"
target triple = "x86_64-pc-linux-gnu"

%"class.icu_77::DateTimeRule" = type <{ %"class.icu_77::UObject", i32, i32, i32, i32, i32, i32, i32, [4 x i8] }>
%"class.icu_77::UObject" = type { ptr }

@_ZTVN6icu_7712DateTimeRuleE = unnamed_addr constant { [5 x ptr] } { [5 x ptr] [ptr null, ptr @_ZTIN6icu_7712DateTimeRuleE, ptr @_ZN6icu_7712DateTimeRuleD1Ev, ptr @_ZN6icu_7712DateTimeRuleD0Ev, ptr @_ZNK6icu_7712DateTimeRule17getDynamicClassIDEv] }, align 8
@_ZTVN6icu_777UObjectE = available_externally unnamed_addr constant { [5 x ptr] } { [5 x ptr] [ptr null, ptr @_ZTIN6icu_777UObjectE, ptr @_ZN6icu_777UObjectD1Ev, ptr @_ZN6icu_777UObjectD0Ev, ptr @_ZNK6icu_777UObject17getDynamicClassIDEv] }, align 8

; Function Attrs: inlinehint mustprogress nounwind uwtable
define linkonce_odr void @_ZN6icu_777UObjectC2Ev(ptr noundef nonnull align 8 dereferenceable(8) %0) unnamed_addr #1 comdat align 2 {
  %2 = alloca ptr, align 8
  store ptr %0, ptr %2, align 8, !tbaa !24
  %3 = load ptr, ptr %2, align 8
  store ptr getelementptr inbounds inrange(-16, 24) ({ [5 x ptr] }, ptr @_ZTVN6icu_777UObjectE, i32 0, i32 0, i32 2), ptr %3, align 8, !tbaa !12
  ret void
}

; Function Attrs: mustprogress nounwind uwtable
define void @_ZN6icu_7712DateTimeRuleC2EiiiaiNS0_12TimeRuleTypeE(ptr noundef nonnull align 8 dereferenceable(36) %0, i32 noundef %1, i32 noundef %2, i32 noundef %3, i8 noundef signext %4, i32 noundef %5, i32 noundef %6) unnamed_addr #0 align 2 {
  %8 = alloca ptr, align 8
  %9 = alloca i32, align 4
  %10 = alloca i32, align 4
  %11 = alloca i32, align 4
  %12 = alloca i8, align 1
  %13 = alloca i32, align 4
  %14 = alloca i32, align 4
  store ptr %0, ptr %8, align 8, !tbaa !3
  store i32 %1, ptr %9, align 4, !tbaa !8
  store i32 %2, ptr %10, align 4, !tbaa !8
  store i32 %3, ptr %11, align 4, !tbaa !8
  store i8 %4, ptr %12, align 1, !tbaa !26
  store i32 %5, ptr %13, align 4, !tbaa !8
  store i32 %6, ptr %14, align 4, !tbaa !10
  %15 = load ptr, ptr %8, align 8
  %16 = getelementptr inbounds i8, ptr %15, i64 0
  call void @llvm.memset.p0.i64(ptr align 8 %16, i8 0, i64 8, i1 false)
  call void @_ZN6icu_777UObjectC2Ev(ptr noundef nonnull align 8 dereferenceable(8) %15) #6
  store ptr getelementptr inbounds inrange(-16, 24) ({ [5 x ptr] }, ptr @_ZTVN6icu_7712DateTimeRuleE, i32 0, i32 0, i32 2), ptr %15, align 8, !tbaa !12
  %17 = getelementptr inbounds nuw %"class.icu_77::DateTimeRule", ptr %15, i32 0, i32 1
  %18 = load i32, ptr %9, align 4, !tbaa !8
  store i32 %18, ptr %17, align 8, !tbaa !14
  %19 = getelementptr inbounds nuw %"class.icu_77::DateTimeRule", ptr %15, i32 0, i32 2
  %20 = load i32, ptr %10, align 4, !tbaa !8
  store i32 %20, ptr %19, align 4, !tbaa !18
  %21 = getelementptr inbounds nuw %"class.icu_77::DateTimeRule", ptr %15, i32 0, i32 3
  %22 = load i32, ptr %11, align 4, !tbaa !8
  store i32 %22, ptr %21, align 8, !tbaa !19
  %23 = getelementptr inbounds nuw %"class.icu_77::DateTimeRule", ptr %15, i32 0, i32 4
  store i32 0, ptr %23, align 4, !tbaa !20
  %24 = getelementptr inbounds nuw %"class.icu_77::DateTimeRule", ptr %15, i32 0, i32 5
  %25 = load i32, ptr %13, align 4, !tbaa !8
  store i32 %25, ptr %24, align 8, !tbaa !21
  %26 = getelementptr inbounds nuw %"class.icu_77::DateTimeRule", ptr %15, i32 0, i32 7
  %27 = load i32, ptr %14, align 4, !tbaa !10
  store i32 %27, ptr %26, align 8, !tbaa !23
  %28 = load i8, ptr %12, align 1, !tbaa !26
  %29 = icmp ne i8 %28, 0
  br i1 %29, label %30, label %32

30:                                               ; preds = %7
  %31 = getelementptr inbounds nuw %"class.icu_77::DateTimeRule", ptr %15, i32 0, i32 6
  store i32 2, ptr %31, align 4, !tbaa !22
  br label %34

32:                                               ; preds = %7
  %33 = getelementptr inbounds nuw %"class.icu_77::DateTimeRule", ptr %15, i32 0, i32 6
  store i32 3, ptr %33, align 4, !tbaa !22
  br label %34

34:                                               ; preds = %32, %30
  ret void
}